target datalayout = "e-m:e-p270:32:32-p271:32:32-p272:64:64-i64:64-i128:128-f80:128-n8:16:32:64-S128"
target triple = "x86_64-pc-linux-gnu"

%class.RecVolumes5 = type { %class.Array.8, ptr, ptr, ptr, ptr, i64, i32, i32, i32, ptr, i32, i32, ptr }
%class.Array.8 = type { ptr, i64, i64, i64 }
%struct.RecRSThreadData = type { ptr, ptr, i8, i32, ptr, i64, i64 }

; Function Attrs: mustprogress uwtable
define void @_ZN11RecVolumes513ProcessAreaRSEP15RecRSThreadData(ptr noundef nonnull align 8 dereferenceable(112) %0, ptr noundef %1) #0 align 2 {
  %3 = alloca ptr, align 8
  %4 = alloca ptr, align 8
  %5 = alloca i32, align 4
  %6 = alloca i32, align 4
  store ptr %0, ptr %3, align 8
  store ptr %1, ptr %4, align 8
  %7 = load ptr, ptr %3, align 8
  %8 = load ptr, ptr %4, align 8
  %9 = getelementptr inbounds %struct.RecRSThreadData, ptr %8, i32 0, i32 2
  %10 = load i8, ptr %9, align 8
  %11 = trunc i8 %10 to i1
  br i1 %11, label %12, label %15

12:                                               ; preds = %2
  %13 = getelementptr inbounds %class.RecVolumes5, ptr %7, i32 0, i32 7
  %14 = load i32, ptr %13, align 4
  br label %18

15:                                               ; preds = %2
  %16 = getelementptr inbounds %class.RecVolumes5, ptr %7, i32 0, i32 10
  %17 = load i32, ptr %16, align 8
  br label %18

18:                                               ; preds = %15, %12
  %19 = phi i32 [ %14, %12 ], [ %17, %15 ]
  store i32 %19, ptr %5, align 4
  store i32 0, ptr %6, align 4
  br label %20

20:                                               ; preds = %54, %18
  %21 = load i32, ptr %6, align 4
  %22 = load i32, ptr %5, align 4
  %23 = icmp ult i32 %21, %22
  br i1 %23, label %24, label %57

24:                                               ; preds = %20
  %25 = load ptr, ptr %4, align 8
  %26 = getelementptr inbounds %struct.RecRSThreadData, ptr %25, i32 0, i32 1
  %27 = load ptr, ptr %26, align 8
  %28 = load ptr, ptr %4, align 8
  %29 = getelementptr inbounds %struct.RecRSThreadData, ptr %28, i32 0, i32 3
  %30 = load i32, ptr %29, align 4
  %31 = load i32, ptr %6, align 4
  %32 = load ptr, ptr %4, align 8
  %33 = getelementptr inbounds %struct.RecRSThreadData, ptr %32, i32 0, i32 4
  %34 = load ptr, ptr %33, align 8
  %35 = load ptr, ptr %4, align 8
  %36 = getelementptr inbounds %struct.RecRSThreadData, ptr %35, i32 0, i32 5
  %37 = load i64, ptr %36, align 8
  %38 = getelementptr inbounds i8, ptr %34, i64 %37
  %39 = getelementptr inbounds %class.RecVolumes5, ptr %7, i32 0, i32 4
  %40 = load ptr, ptr %39, align 8
  %41 = load i32, ptr %6, align 4
  %42 = zext i32 %41 to i64
  %43 = getelementptr inbounds %class.RecVolumes5, ptr %7, i32 0, i32 5
  %44 = load i64, ptr %43, align 8
  %45 = mul i64 %42, %44
  %46 = getelementptr inbounds i8, ptr %40, i64 %45
  %47 = load ptr, ptr %4, align 8
  %48 = getelementptr inbounds %struct.RecRSThreadData, ptr %47, i32 0, i32 5
  %49 = load i64, ptr %48, align 8
  %50 = getelementptr inbounds i8, ptr %46, i64 %49
  %51 = load ptr, ptr %4, align 8
  %52 = getelementptr inbounds %struct.RecRSThreadData, ptr %51, i32 0, i32 6
  %53 = load i64, ptr %52, align 8
  call void @_ZN9RSCoder169UpdateECCEjjPKhPhm(ptr noundef nonnull align 8 dereferenceable(64) %27, i32 noundef %30, i32 noundef %31, ptr noundef %38, ptr noundef %50, i64 noundef %53)
  br label %54

54:                                               ; preds = %24
  %55 = load i32, ptr %6, align 4
  %56 = add i32 %55, 1
  store i32 %56, ptr %6, align 4
  br label %20, !llvm.loop !38

57:                                               ; preds = %20
  ret void
}

; Function Attrs: mustprogress uwtable
define void @_ZN11RecVolumes59ProcessRSEP11CommandDatajPKhjb(ptr noundef nonnull align 8 dereferenceable(112) %0, ptr noundef %1, i32 noundef %2, ptr noundef %3, i32 noundef %4, i1 noundef zeroext %5) #0 align 2 personality ptr @__gxx_personality_v0 {
  %7 = alloca ptr, align 8
  %8 = alloca ptr, align 8
  %9 = alloca i32, align 4
  %10 = alloca ptr, align 8
  %11 = alloca i32, align 4
  %12 = alloca i8, align 1
  %13 = alloca i32, align 4
  %14 = alloca i32, align 4
  %15 = alloca i32, align 4
  %16 = alloca i64, align 8
  %17 = alloca i64, align 8
  %18 = alloca ptr, align 8
  %19 = alloca ptr, align 8
  %20 = alloca i32, align 4
  %21 = alloca i64, align 8
  store ptr %0, ptr %7, align 8
  store ptr %1, ptr %8, align 8
  store i32 %2, ptr %9, align 4
  store ptr %3, ptr %10, align 8
  store i32 %4, ptr %11, align 4
  %22 = zext i1 %5 to i8
  store i8 %22, ptr %12, align 1
  %23 = load ptr, ptr %7, align 8
  %24 = getelementptr inbounds %class.RecVolumes5, ptr %23, i32 0, i32 11
  %25 = load i32, ptr %24, align 4
  store i32 %25, ptr %13, align 4
  store i32 4096, ptr %14, align 4
  %26 = load i32, ptr %13, align 4
  %27 = load i32, ptr %11, align 4
  %28 = udiv i32 %27, 4096
  %29 = icmp ult i32 %26, %28
  br i1 %29, label %30, label %32

30:                                               ; preds = %6
  %31 = load i32, ptr %13, align 4
  br label %35

32:                                               ; preds = %6
  %33 = load i32, ptr %11, align 4
  %34 = udiv i32 %33, 4096
  br label %35

35:                                               ; preds = %32, %30
  %36 = phi i32 [ %31, %30 ], [ %34, %32 ]
  store i32 %36, ptr %13, align 4
  %37 = load i32, ptr %13, align 4
  %38 = icmp ult i32 %37, 1
  br i1 %38, label %39, label %40

39:                                               ; preds = %35
  store i32 1, ptr %13, align 4
  br label %40

40:                                               ; preds = %39, %35
  %41 = load i32, ptr %11, align 4
  %42 = load i32, ptr %13, align 4
  %43 = udiv i32 %41, %42
  store i32 %43, ptr %15, align 4
  %44 = load i32, ptr %15, align 4
  %45 = and i32 %44, 1
  %46 = load i32, ptr %15, align 4
  %47 = add i32 %46, %45
  store i32 %47, ptr %15, align 4
  %48 = load i32, ptr %15, align 4
  %49 = icmp ult i32 %48, 4096
  br i1 %49, label %50, label %51

50:                                               ; preds = %40
  store i32 4096, ptr %15, align 4
  br label %51

51:                                               ; preds = %50, %40
  store i64 0, ptr %16, align 8
  store i64 0, ptr %17, align 8
  br label %52

52:                                               ; preds = %138, %51
  %53 = load i64, ptr %16, align 8
  %54 = load i32, ptr %13, align 4
  %55 = zext i32 %54 to i64
  %56 = icmp ult i64 %53, %55
  br i1 %56, label %57, label %62

57:                                               ; preds = %52
  %58 = load i64, ptr %17, align 8
  %59 = load i32, ptr %11, align 4
  %60 = zext i32 %59 to i64
  %61 = icmp ult i64 %58, %60
  br label %62

62:                                               ; preds = %57, %52
  %63 = phi i1 [ false, %52 ], [ %61, %57 ]
  br i1 %63, label %64, label %141

64:                                               ; preds = %62
  %65 = getelementptr inbounds %class.RecVolumes5, ptr %23, i32 0, i32 12
  %66 = load ptr, ptr %65, align 8
  %67 = load i64, ptr %16, align 8
  %68 = getelementptr inbounds %struct.RecRSThreadData, ptr %66, i64 %67
  store ptr %68, ptr %18, align 8
  %69 = load ptr, ptr %18, align 8
  %70 = getelementptr inbounds %struct.RecRSThreadData, ptr %69, i32 0, i32 1
  %71 = load ptr, ptr %70, align 8
  %72 = icmp eq ptr %71, null
  br i1 %72, label %73, label %98

73:                                               ; preds = %64
  %74 = call noalias noundef nonnull ptr @_Znwm(i64 noundef 64) #12
  invoke void @_ZN9RSCoder16C1Ev(ptr noundef nonnull align 8 dereferenceable(64) %74)
          to label %75 unwind label %94

75:                                               ; preds = %73
  %76 = load ptr, ptr %18, align 8
  %77 = getelementptr inbounds %struct.RecRSThreadData, ptr %76, i32 0, i32 1
  store ptr %74, ptr %77, align 8
  %78 = load ptr, ptr %18, align 8
  %79 = getelementptr inbounds %struct.RecRSThreadData, ptr %78, i32 0, i32 1
  %80 = load ptr, ptr %79, align 8
  %81 = getelementptr inbounds %class.RecVolumes5, ptr %23, i32 0, i32 6
  %82 = load i32, ptr %81, align 8
  %83 = getelementptr inbounds %class.RecVolumes5, ptr %23, i32 0, i32 7
  %84 = load i32, ptr %83, align 4
  %85 = load i8, ptr %12, align 1
  %86 = trunc i8 %85 to i1
  br i1 %86, label %87, label %88

87:                                               ; preds = %75
  br label %91

88:                                               ; preds = %75
  %89 = getelementptr inbounds %class.RecVolumes5, ptr %23, i32 0, i32 9
  %90 = load ptr, ptr %89, align 8
  br label %91

91:                                               ; preds = %88, %87
  %92 = phi ptr [ null, %87 ], [ %90, %88 ]
  %93 = call noundef zeroext i1 @_ZN9RSCoder164InitEjjPb(ptr noundef nonnull align 8 dereferenceable(64) %80, i32 noundef %82, i32 noundef %84, ptr noundef %92)
  br label %98

94:                                               ; preds = %73
  %95 = landingpad { ptr, i32 }
          cleanup
  %96 = extractvalue { ptr, i32 } %95, 0
  store ptr %96, ptr %19, align 8
  %97 = extractvalue { ptr, i32 } %95, 1
  store i32 %97, ptr %20, align 4
  call void @_ZdlPv(ptr noundef %74) #13
  br label %142

98:                                               ; preds = %91, %64
  %99 = load i32, ptr %9, align 4
  %100 = load ptr, ptr %18, align 8
  %101 = getelementptr inbounds %struct.RecRSThreadData, ptr %100, i32 0, i32 3
  store i32 %99, ptr %101, align 4
  %102 = load ptr, ptr %10, align 8
  %103 = load ptr, ptr %18, align 8
  %104 = getelementptr inbounds %struct.RecRSThreadData, ptr %103, i32 0, i32 4
  store ptr %102, ptr %104, align 8
  %105 = load i8, ptr %12, align 1
  %106 = trunc i8 %105 to i1
  %107 = load ptr, ptr %18, align 8
  %108 = getelementptr inbounds %struct.RecRSThreadData, ptr %107, i32 0, i32 2
  %109 = zext i1 %106 to i8
  store i8 %109, ptr %108, align 8
  %110 = load i64, ptr %17, align 8
  %111 = load ptr, ptr %18, align 8
  %112 = getelementptr inbounds %struct.RecRSThreadData, ptr %111, i32 0, i32 5
  store i64 %110, ptr %112, align 8
  %113 = load i64, ptr %17, align 8
  %114 = load i32, ptr %15, align 4
  %115 = zext i32 %114 to i64
  %116 = add i64 %113, %115
  store i64 %116, ptr %21, align 8
  %117 = load i64, ptr %21, align 8
  %118 = load i32, ptr %11, align 4
  %119 = zext i32 %118 to i64
  %120 = icmp ugt i64 %117, %119
  br i1 %120, label %127, label %121

121:                                              ; preds = %98
  %122 = load i64, ptr %16, align 8
  %123 = load i32, ptr %13, align 4
  %124 = sub i32 %123, 1
  %125 = zext i32 %124 to i64
  %126 = icmp eq i64 %122, %125
  br i1 %126, label %127, label %130

127:                                              ; preds = %121, %98
  %128 = load i32, ptr %11, align 4
  %129 = zext i32 %128 to i64
  store i64 %129, ptr %21, align 8
  br label %130

130:                                              ; preds = %127, %121
  %131 = load i64, ptr %21, align 8
  %132 = load i64, ptr %17, align 8
  %133 = sub i64 %131, %132
  %134 = load ptr, ptr %18, align 8
  %135 = getelementptr inbounds %struct.RecRSThreadData, ptr %134, i32 0, i32 6
  store i64 %133, ptr %135, align 8
  %136 = load i64, ptr %21, align 8
  store i64 %136, ptr %17, align 8
  %137 = load ptr, ptr %18, align 8
  call void @_ZN11RecVolumes513ProcessAreaRSEP15RecRSThreadData(ptr noundef nonnull align 8 dereferenceable(112) %23, ptr noundef %137)
  br label %138

138:                                              ; preds = %130
  %139 = load i64, ptr %16, align 8
  %140 = add i64 %139, 1
  store i64 %140, ptr %16, align 8
  br label %52, !llvm.loop !37

141:                                              ; preds = %62
  ret void

142:                                              ; preds = %94
  %143 = load ptr, ptr %19, align 8
  %144 = load i32, ptr %20, align 4
  %145 = insertvalue { ptr, i32 } poison, ptr %143, 0
  %146 = insertvalue { ptr, i32 } %145, i32 %144, 1
  resume { ptr, i32 } %146
}