; Function Attrs: mustprogress uwtable
define void @_ZN11RecVolumes59ProcessRSEP11CommandDatajPKhjb(ptr nocapture noundef nonnull readonly align 8 dereferenceable(112) %0, ptr nocapture readnone %1, i32 noundef %2, ptr noundef %3, i32 noundef %4, i1 noundef zeroext %5) local_unnamed_addr #0 align 2 personality ptr @__gxx_personality_v0 {
  %7 = zext i1 %5 to i8
  %8 = getelementptr inbounds i8, ptr %0, i64 100
  %9 = load i32, ptr %8, align 4
  %10 = lshr i32 %4, 12
  %11 = tail call i32 @llvm.umin.i32(i32 %9, i32 %10)
  %spec.store.select1 = tail call i32 @llvm.umax.i32(i32 %11, i32 1)
  %12 = zext nneg i32 %spec.store.select1 to i64
  %13 = zext i32 %4 to i64
  %.not = icmp eq i32 %4, 0
  br i1 %.not, label %._crit_edge, label %.lr.ph

.lr.ph:                                           ; preds = %6
  %14 = udiv i32 %4, %spec.store.select1
  %15 = and i32 %14, 1
  %16 = add i32 %15, %14
  %spec.store.select = tail call i32 @llvm.umax.i32(i32 %16, i32 4096)
  %17 = getelementptr inbounds i8, ptr %0, i64 104
  %18 = getelementptr inbounds i8, ptr %0, i64 72
  %19 = getelementptr inbounds i8, ptr %0, i64 76
  %20 = getelementptr inbounds i8, ptr %0, i64 88
  %21 = zext i32 %spec.store.select to i64
  %22 = add nsw i32 %spec.store.select1, -1
  %23 = zext nneg i32 %22 to i64
  %.in.v.i = select i1 %5, i64 76, i64 96
  %.in.i = getelementptr inbounds i8, ptr %0, i64 %.in.v.i
  %24 = getelementptr inbounds i8, ptr %0, i64 56
  %25 = getelementptr inbounds i8, ptr %0, i64 64
  br label %26

26:                                               ; preds = %.lr.ph, %_ZN11RecVolumes513ProcessAreaRSEP15RecRSThreadData.exit
  %.04350 = phi i64 [ 0, %.lr.ph ], [ %66, %_ZN11RecVolumes513ProcessAreaRSEP15RecRSThreadData.exit ]
  %.04449 = phi i64 [ 0, %.lr.ph ], [ %.0, %_ZN11RecVolumes513ProcessAreaRSEP15RecRSThreadData.exit ]
  %27 = load ptr, ptr %17, align 8
  %28 = getelementptr inbounds %struct.RecRSThreadData, ptr %27, i64 %.04350
  %29 = getelementptr inbounds i8, ptr %28, i64 8
  %30 = load ptr, ptr %29, align 8
  %31 = icmp eq ptr %30, null
  br i1 %31, label %32, label %42

32:                                               ; preds = %26
  %33 = tail call noalias noundef nonnull dereferenceable(64) ptr @_Znwm(i64 noundef 64) #15
  invoke void @_ZN9RSCoder16C1Ev(ptr noundef nonnull align 8 dereferenceable(64) %33)
          to label %34 unwind label %40

34:                                               ; preds = %32
  store ptr %33, ptr %29, align 8
  %35 = load i32, ptr %18, align 8
  %36 = load i32, ptr %19, align 4
  %37 = load ptr, ptr %20, align 8
  %38 = select i1 %5, ptr null, ptr %37
  %39 = tail call noundef zeroext i1 @_ZN9RSCoder164InitEjjPb(ptr noundef nonnull align 8 dereferenceable(64) %33, i32 noundef %35, i32 noundef %36, ptr noundef %38)
  br label %42

40:                                               ; preds = %32
  %41 = landingpad { ptr, i32 }
          cleanup
  tail call void @_ZdlPv(ptr noundef nonnull %33) #16
  resume { ptr, i32 } %41

42:                                               ; preds = %34, %26
  %43 = getelementptr inbounds i8, ptr %28, i64 20
  store i32 %2, ptr %43, align 4
  %44 = getelementptr inbounds i8, ptr %28, i64 24
  store ptr %3, ptr %44, align 8
  %45 = getelementptr inbounds i8, ptr %28, i64 16
  store i8 %7, ptr %45, align 8
  %46 = getelementptr inbounds i8, ptr %28, i64 32
  store i64 %.04449, ptr %46, align 8
  %47 = add nuw nsw i64 %.04449, %21
  %48 = icmp ugt i64 %47, %13
  %49 = icmp eq i64 %.04350, %23
  %or.cond = select i1 %48, i1 true, i1 %49
  %.0 = select i1 %or.cond, i64 %13, i64 %47
  %50 = sub nsw i64 %.0, %.04449
  %51 = getelementptr inbounds i8, ptr %28, i64 40
  store i64 %50, ptr %51, align 8
  %52 = load i32, ptr %.in.i, align 4
  %.not.i = icmp eq i32 %52, 0
  br i1 %.not.i, label %_ZN11RecVolumes513ProcessAreaRSEP15RecRSThreadData.exit, label %.lr.ph.i

.lr.ph.i:                                         ; preds = %42
  %wide.trip.count.i = zext i32 %52 to i64
  br label %53

53:                                               ; preds = %53, %.lr.ph.i
  %indvars.iv.i = phi i64 [ 0, %.lr.ph.i ], [ %indvars.iv.next.i, %53 ]
  %54 = load ptr, ptr %29, align 8
  %55 = load i32, ptr %43, align 4
  %56 = load ptr, ptr %44, align 8
  %57 = load i64, ptr %46, align 8
  %58 = getelementptr inbounds i8, ptr %56, i64 %57
  %59 = load ptr, ptr %24, align 8
  %60 = load i64, ptr %25, align 8
  %61 = mul i64 %60, %indvars.iv.i
  %62 = getelementptr inbounds i8, ptr %59, i64 %61
  %63 = getelementptr inbounds i8, ptr %62, i64 %57
  %64 = load i64, ptr %51, align 8
  %65 = trunc nuw i64 %indvars.iv.i to i32
  tail call void @_ZN9RSCoder169UpdateECCEjjPKhPhm(ptr noundef nonnull align 8 dereferenceable(64) %54, i32 noundef %55, i32 noundef %65, ptr noundef %58, ptr noundef %63, i64 noundef %64)
  %indvars.iv.next.i = add nuw nsw i64 %indvars.iv.i, 1
  %exitcond.not.i = icmp eq i64 %indvars.iv.next.i, %wide.trip.count.i
  br i1 %exitcond.not.i, label %_ZN11RecVolumes513ProcessAreaRSEP15RecRSThreadData.exit, label %53, !llvm.loop !35

_ZN11RecVolumes513ProcessAreaRSEP15RecRSThreadData.exit: ; preds = %53, %42
  %66 = add nuw nsw i64 %.04350, 1
  %67 = icmp ult i64 %66, %12
  %68 = icmp ult i64 %.0, %13
  %69 = and i1 %68, %67
  br i1 %69, label %26, label %._crit_edge, !llvm.loop !36

._crit_edge:                                      ; preds = %_ZN11RecVolumes513ProcessAreaRSEP15RecRSThreadData.exit, %6
  ret void
}